target datalayout = "e-m:e-p270:32:32-p271:32:32-p272:64:64-i64:64-i128:128-f80:128-n8:16:32:64-S128"
target triple = "x86_64-unknown-linux-gnu"

%"class.grpc_core::DebugLocation" = type { i8 }
%struct.grpc_slice = type { ptr, %"union.grpc_slice::grpc_slice_data" }
%"union.grpc_slice::grpc_slice_data" = type { %"struct.grpc_slice::grpc_slice_data::grpc_slice_refcounted", [8 x i8] }
%"struct.grpc_slice::grpc_slice_data::grpc_slice_refcounted" = type { i64, ptr }
%struct.grpc_byte_buffer = type { ptr, i32, %"union.grpc_byte_buffer::grpc_byte_buffer_data" }
%"union.grpc_byte_buffer::grpc_byte_buffer_data" = type { %"struct.grpc_byte_buffer::grpc_byte_buffer_data::grpc_compressed_buffer" }
%"struct.grpc_byte_buffer::grpc_byte_buffer_data::grpc_compressed_buffer" = type { i32, %struct.grpc_slice_buffer }
%struct.grpc_slice_buffer = type { ptr, ptr, i64, i64, i64, [7 x %struct.grpc_slice] }
%struct.grpc_slice_refcount = type { %"struct.std::atomic", ptr }
%"struct.std::atomic" = type { %"struct.std::__atomic_base" }
%"struct.std::__atomic_base" = type { i64 }

; Function Attrs: mustprogress nounwind uwtable
define linkonce_odr void @_ZN19grpc_slice_refcount3RefEN9grpc_core13DebugLocationE(ptr noundef nonnull align 8 dereferenceable(16) %this) #5 comdat align 2 {
entry:
  %this.addr.i = alloca ptr, align 8
  %__i.addr.i = alloca i64, align 8
  %__m.addr.i = alloca i32, align 4
  %.atomictmp.i = alloca i64, align 8
  %atomic-temp.i = alloca i64, align 8
  %this.addr = alloca ptr, align 8
  %prev_refs = alloca i64, align 8
  store ptr %this, ptr %this.addr, align 8
  %this1 = load ptr, ptr %this.addr, align 8
  %ref_ = getelementptr inbounds %struct.grpc_slice_refcount, ptr %this1, i32 0, i32 0
  store ptr %ref_, ptr %this.addr.i, align 8
  store i64 1, ptr %__i.addr.i, align 8
  store i32 0, ptr %__m.addr.i, align 4
  %this1.i = load ptr, ptr %this.addr.i, align 8
  %0 = load i32, ptr %__m.addr.i, align 4
  %1 = load i64, ptr %__i.addr.i, align 8
  store i64 %1, ptr %.atomictmp.i, align 8
  switch i32 %0, label %monotonic.i [
    i32 1, label %acquire.i
    i32 2, label %acquire.i
    i32 3, label %release.i
    i32 4, label %acqrel.i
    i32 5, label %seqcst.i
  ]

monotonic.i:                                      ; preds = %entry
  %2 = load i64, ptr %.atomictmp.i, align 8
  %3 = atomicrmw add ptr %this1.i, i64 %2 monotonic, align 8
  store i64 %3, ptr %atomic-temp.i, align 8
  br label %_ZNSt13__atomic_baseImE9fetch_addEmSt12memory_order.exit

acquire.i:                                        ; preds = %entry, %entry
  %4 = load i64, ptr %.atomictmp.i, align 8
  %5 = atomicrmw add ptr %this1.i, i64 %4 acquire, align 8
  store i64 %5, ptr %atomic-temp.i, align 8
  br label %_ZNSt13__atomic_baseImE9fetch_addEmSt12memory_order.exit

release.i:                                        ; preds = %entry
  %6 = load i64, ptr %.atomictmp.i, align 8
  %7 = atomicrmw add ptr %this1.i, i64 %6 release, align 8
  store i64 %7, ptr %atomic-temp.i, align 8
  br label %_ZNSt13__atomic_baseImE9fetch_addEmSt12memory_order.exit

acqrel.i:                                         ; preds = %entry
  %8 = load i64, ptr %.atomictmp.i, align 8
  %9 = atomicrmw add ptr %this1.i, i64 %8 acq_rel, align 8
  store i64 %9, ptr %atomic-temp.i, align 8
  br label %_ZNSt13__atomic_baseImE9fetch_addEmSt12memory_order.exit

seqcst.i:                                         ; preds = %entry
  %10 = load i64, ptr %.atomictmp.i, align 8
  %11 = atomicrmw add ptr %this1.i, i64 %10 seq_cst, align 8
  store i64 %11, ptr %atomic-temp.i, align 8
  br label %_ZNSt13__atomic_baseImE9fetch_addEmSt12memory_order.exit

_ZNSt13__atomic_baseImE9fetch_addEmSt12memory_order.exit: ; preds = %seqcst.i, %acqrel.i, %release.i, %acquire.i, %monotonic.i
  %12 = load i64, ptr %atomic-temp.i, align 8
  store i64 %12, ptr %prev_refs, align 8
  ret void
}

; Function Attrs: mustprogress uwtable
define linkonce_odr noundef nonnull align 8 dereferenceable(32) ptr @_ZN9grpc_core9CSliceRefERK10grpc_sliceNS_13DebugLocationE(ptr noundef nonnull align 8 dereferenceable(32) %slice) #4 comdat {
entry:
  %slice.addr = alloca ptr, align 8
  store ptr %slice, ptr %slice.addr, align 8
  %0 = load ptr, ptr %slice.addr, align 8
  %refcount = getelementptr inbounds %struct.grpc_slice, ptr %0, i32 0, i32 0
  %1 = load ptr, ptr %refcount, align 8
  %2 = ptrtoint ptr %1 to i64
  %cmp = icmp ugt i64 %2, 1
  br i1 %cmp, label %if.then, label %if.end

if.then:                                          ; preds = %entry
  %3 = load ptr, ptr %slice.addr, align 8
  %refcount1 = getelementptr inbounds %struct.grpc_slice, ptr %3, i32 0, i32 0
  %4 = load ptr, ptr %refcount1, align 8
  call void @_ZN19grpc_slice_refcount3RefEN9grpc_core13DebugLocationE(ptr noundef nonnull align 8 dereferenceable(16) %4)
  br label %if.end

if.end:                                           ; preds = %if.then, %entry
  %5 = load ptr, ptr %slice.addr, align 8
  ret ptr %5
}

; Function Attrs: mustprogress nounwind uwtable
define linkonce_odr void @_ZN9grpc_core13DebugLocationC2Ev(ptr noundef nonnull align 1 dereferenceable(1) %this) unnamed_addr #5 comdat align 2 {
entry:
  %this.addr = alloca ptr, align 8
  store ptr %this, ptr %this.addr, align 8
  ret void
}

; Function Attrs: mustprogress uwtable
define ptr @grpc_raw_compressed_byte_buffer_create(ptr noundef %slices, i64 noundef %nslices, i32 noundef %compression) #4 {
entry:
  %slices.addr = alloca ptr, align 8
  %nslices.addr = alloca i64, align 8
  %compression.addr = alloca i32, align 4
  %i = alloca i64, align 8
  %bb = alloca ptr, align 8
  %agg.tmp = alloca %"class.grpc_core::DebugLocation", align 1
  %agg.tmp6 = alloca %struct.grpc_slice, align 8
  store ptr %slices, ptr %slices.addr, align 8
  store i64 %nslices, ptr %nslices.addr, align 8
  store i32 %compression, ptr %compression.addr, align 4
  %call = call ptr @gpr_malloc(i64 noundef 288)
  store ptr %call, ptr %bb, align 8
  %0 = load ptr, ptr %bb, align 8
  %type = getelementptr inbounds %struct.grpc_byte_buffer, ptr %0, i32 0, i32 1
  store i32 0, ptr %type, align 8
  %1 = load i32, ptr %compression.addr, align 4
  %2 = load ptr, ptr %bb, align 8
  %data = getelementptr inbounds %struct.grpc_byte_buffer, ptr %2, i32 0, i32 2
  %compression1 = getelementptr inbounds %"struct.grpc_byte_buffer::grpc_byte_buffer_data::grpc_compressed_buffer", ptr %data, i32 0, i32 0
  store i32 %1, ptr %compression1, align 8
  %3 = load ptr, ptr %bb, align 8
  %data2 = getelementptr inbounds %struct.grpc_byte_buffer, ptr %3, i32 0, i32 2
  %slice_buffer = getelementptr inbounds %"struct.grpc_byte_buffer::grpc_byte_buffer_data::grpc_compressed_buffer", ptr %data2, i32 0, i32 1
  call void @grpc_slice_buffer_init(ptr noundef %slice_buffer)
  store i64 0, ptr %i, align 8
  br label %for.cond

for.cond:                                         ; preds = %for.inc, %entry
  %4 = load i64, ptr %i, align 8
  %5 = load i64, ptr %nslices.addr, align 8
  %cmp = icmp ult i64 %4, %5
  br i1 %cmp, label %for.body, label %for.end

for.body:                                         ; preds = %for.cond
  %6 = load ptr, ptr %slices.addr, align 8
  %7 = load i64, ptr %i, align 8
  %arrayidx = getelementptr inbounds %struct.grpc_slice, ptr %6, i64 %7
  call void @_ZN9grpc_core13DebugLocationC2Ev(ptr noundef nonnull align 1 dereferenceable(1) %agg.tmp)
  %call3 = call noundef nonnull align 8 dereferenceable(32) ptr @_ZN9grpc_core9CSliceRefERK10grpc_sliceNS_13DebugLocationE(ptr noundef nonnull align 8 dereferenceable(32) %arrayidx)
  %8 = load ptr, ptr %bb, align 8
  %data4 = getelementptr inbounds %struct.grpc_byte_buffer, ptr %8, i32 0, i32 2
  %slice_buffer5 = getelementptr inbounds %"struct.grpc_byte_buffer::grpc_byte_buffer_data::grpc_compressed_buffer", ptr %data4, i32 0, i32 1
  %9 = load ptr, ptr %slices.addr, align 8
  %10 = load i64, ptr %i, align 8
  %arrayidx7 = getelementptr inbounds %struct.grpc_slice, ptr %9, i64 %10
  call void @llvm.memcpy.p0.p0.i64(ptr align 8 %agg.tmp6, ptr align 8 %arrayidx7, i64 32, i1 false)
  call void @grpc_slice_buffer_add(ptr noundef %slice_buffer5, ptr noundef byval(%struct.grpc_slice) align 8 %agg.tmp6)
  br label %for.inc

for.inc:                                          ; preds = %for.body
  %11 = load i64, ptr %i, align 8
  %inc = add i64 %11, 1
  store i64 %inc, ptr %i, align 8
  br label %for.cond, !llvm.loop !4

for.end:                                          ; preds = %for.cond
  %12 = load ptr, ptr %bb, align 8
  ret ptr %12
}

; Function Attrs: mustprogress uwtable
define ptr @grpc_raw_byte_buffer_create(ptr noundef %slices, i64 noundef %nslices) #4 {
entry:
  %slices.addr = alloca ptr, align 8
  %nslices.addr = alloca i64, align 8
  store ptr %slices, ptr %slices.addr, align 8
  store i64 %nslices, ptr %nslices.addr, align 8
  %0 = load ptr, ptr %slices.addr, align 8
  %1 = load i64, ptr %nslices.addr, align 8
  %call = call ptr @grpc_raw_compressed_byte_buffer_create(ptr noundef %0, i64 noundef %1, i32 noundef 0)
  ret ptr %call
}