; Function Attrs: mustprogress uwtable
define ptr @grpc_raw_byte_buffer_create(ptr noundef %slices, i64 noundef %nslices) local_unnamed_addr #3 {
entry:
  %call.i = tail call ptr @gpr_malloc(i64 noundef 288)
  %type.i = getelementptr inbounds i8, ptr %call.i, i64 8
  store i32 0, ptr %type.i, align 8
  %data.i = getelementptr inbounds i8, ptr %call.i, i64 16
  store i32 0, ptr %data.i, align 8
  %slice_buffer.i = getelementptr inbounds i8, ptr %call.i, i64 24
  tail call void @grpc_slice_buffer_init(ptr noundef nonnull %slice_buffer.i)
  %cmp9.not.i = icmp eq i64 %nslices, 0
  br i1 %cmp9.not.i, label %grpc_raw_compressed_byte_buffer_create.exit, label %for.body.i

for.body.i:                                       ; preds = %entry, %_ZN9grpc_core9CSliceRefERK10grpc_sliceNS_13DebugLocationE.exit.i
  %i.010.i = phi i64 [ %inc.i, %_ZN9grpc_core9CSliceRefERK10grpc_sliceNS_13DebugLocationE.exit.i ], [ 0, %entry ]
  %arrayidx.i = getelementptr inbounds %struct.grpc_slice, ptr %slices, i64 %i.010.i
  %0 = load ptr, ptr %arrayidx.i, align 8
  %cmp.i.i = icmp ugt ptr %0, inttoptr (i64 1 to ptr)
  br i1 %cmp.i.i, label %if.then.i.i, label %_ZN9grpc_core9CSliceRefERK10grpc_sliceNS_13DebugLocationE.exit.i

if.then.i.i:                                      ; preds = %for.body.i
  %1 = atomicrmw add ptr %0, i64 1 monotonic, align 8
  br label %_ZN9grpc_core9CSliceRefERK10grpc_sliceNS_13DebugLocationE.exit.i

_ZN9grpc_core9CSliceRefERK10grpc_sliceNS_13DebugLocationE.exit.i: ; preds = %if.then.i.i, %for.body.i
  tail call void @grpc_slice_buffer_add(ptr noundef nonnull %slice_buffer.i, ptr noundef nonnull byval(%struct.grpc_slice) align 8 %arrayidx.i)
  %inc.i = add nuw i64 %i.010.i, 1
  %exitcond.not.i = icmp eq i64 %inc.i, %nslices
  br i1 %exitcond.not.i, label %grpc_raw_compressed_byte_buffer_create.exit, label %for.body.i, !llvm.loop !4

grpc_raw_compressed_byte_buffer_create.exit:      ; preds = %_ZN9grpc_core9CSliceRefERK10grpc_sliceNS_13DebugLocationE.exit.i, %entry
  ret ptr %call.i
}